target datalayout = "e-m:e-p270:32:32-p271:32:32-p272:64:64-i64:64-i128:128-f80:128-n8:16:32:64-S128"
target triple = "x86_64-pc-linux-gnu"

%"struct.vcpkg::StringLiteral" = type { %"struct.vcpkg::ZStringView" }
%"struct.vcpkg::ZStringView" = type { %"struct.vcpkg::StringView" }
%"struct.vcpkg::StringView" = type { ptr, i64 }
%"struct.vcpkg::LocalizedString" = type { %"class.std::__cxx11::basic_string" }
%"class.std::__cxx11::basic_string" = type { %"struct.std::__cxx11::basic_string<char>::_Alloc_hider", i64, %union.anon }
%"struct.std::__cxx11::basic_string<char>::_Alloc_hider" = type { ptr }
%union.anon = type { i64, [8 x i8] }
%"struct.(anonymous namespace)::NuGetTool" = type <{ %"struct.vcpkg::Command", %"class.std::__cxx11::basic_string", i8, i8, [6 x i8] }>
%"struct.vcpkg::Command" = type { %"class.std::__cxx11::basic_string" }
%"struct.(anonymous namespace)::NuGetSource" = type { %"struct.vcpkg::StringLiteral", %"class.std::__cxx11::basic_string" }
%"struct.vcpkg::ExpectedT.154" = type <{ %union.anon.155, i8, [7 x i8] }>
%union.anon.155 = type { %"struct.vcpkg::LocalizedString" }

@.str.174 = private unnamed_addr constant [5 x i8] c"push\00", align 1
@.str.175 = private unnamed_addr constant [9 x i8] c"-Timeout\00", align 1

; Function Attrs: mustprogress nounwind uwtable
define linkonce_odr dso_local void @_ZN5vcpkg10StringViewC2EPKcm(ptr noundef nonnull align 8 dereferenceable(16) %0, ptr noundef %1, i64 noundef %2) unnamed_addr #1 comdat align 2 {
  %4 = alloca ptr, align 8
  %5 = alloca ptr, align 8
  %6 = alloca i64, align 8
  store ptr %0, ptr %4, align 8
  store ptr %1, ptr %5, align 8
  store i64 %2, ptr %6, align 8
  %7 = load ptr, ptr %4, align 8
  %8 = getelementptr inbounds %"struct.vcpkg::StringView", ptr %7, i32 0, i32 0
  %9 = load ptr, ptr %5, align 8
  store ptr %9, ptr %8, align 8
  %10 = getelementptr inbounds %"struct.vcpkg::StringView", ptr %7, i32 0, i32 1
  %11 = load i64, ptr %6, align 8
  store i64 %11, ptr %10, align 8
  ret void
}

; Function Attrs: mustprogress nounwind uwtable
define linkonce_odr dso_local void @_ZN5vcpkg11ZStringViewC2EPKcm(ptr noundef nonnull align 8 dereferenceable(16) %0, ptr noundef %1, i64 noundef %2) unnamed_addr #1 comdat align 2 {
  %4 = alloca ptr, align 8
  %5 = alloca ptr, align 8
  %6 = alloca i64, align 8
  store ptr %0, ptr %4, align 8
  store ptr %1, ptr %5, align 8
  store i64 %2, ptr %6, align 8
  %7 = load ptr, ptr %4, align 8
  %8 = load ptr, ptr %5, align 8
  %9 = load i64, ptr %6, align 8
  call void @_ZN5vcpkg10StringViewC2EPKcm(ptr noundef nonnull align 8 dereferenceable(16) %7, ptr noundef %8, i64 noundef %9) #8
  ret void
}

; Function Attrs: mustprogress nounwind uwtable
define linkonce_odr dso_local void @_ZN5vcpkg7CommandC2EOS0_(ptr noundef nonnull align 8 dereferenceable(32) %0, ptr noundef nonnull align 8 dereferenceable(32) %1) unnamed_addr #1 comdat align 2 {
  %3 = alloca ptr, align 8
  %4 = alloca ptr, align 8
  store ptr %0, ptr %3, align 8
  store ptr %1, ptr %4, align 8
  %5 = load ptr, ptr %3, align 8
  %6 = getelementptr inbounds %"struct.vcpkg::Command", ptr %5, i32 0, i32 0
  %7 = load ptr, ptr %4, align 8
  %8 = getelementptr inbounds %"struct.vcpkg::Command", ptr %7, i32 0, i32 0
  call void @_ZNSt7__cxx1112basic_stringIcSt11char_traitsIcESaIcEEC1EOS4_(ptr noundef nonnull align 8 dereferenceable(32) %6, ptr noundef nonnull align 8 dereferenceable(32) %8) #8
  ret void
}

; Function Attrs: mustprogress nounwind uwtable
define linkonce_odr dso_local void @_ZN5vcpkg10StringViewC2EPKc(ptr noundef nonnull align 8 dereferenceable(16) %0, ptr noundef %1) unnamed_addr #1 comdat align 2 {
  %3 = alloca ptr, align 8
  %4 = alloca ptr, align 8
  store ptr %0, ptr %3, align 8
  store ptr %1, ptr %4, align 8
  %5 = load ptr, ptr %3, align 8
  %6 = getelementptr inbounds %"struct.vcpkg::StringView", ptr %5, i32 0, i32 0
  %7 = load ptr, ptr %4, align 8
  store ptr %7, ptr %6, align 8
  %8 = getelementptr inbounds %"struct.vcpkg::StringView", ptr %5, i32 0, i32 1
  %9 = load ptr, ptr %4, align 8
  %10 = call i64 @strlen(ptr noundef %9) #19
  store i64 %10, ptr %8, align 8
  ret void
}

; Function Attrs: mustprogress uwtable
define linkonce_odr dso_local noundef nonnull align 8 dereferenceable(32) ptr @_ZNO5vcpkg7Command10string_argENS_10StringViewE(ptr noundef nonnull align 8 dereferenceable(32) %0, ptr %1, i64 %2) #0 comdat align 2 {
  %4 = alloca %"struct.vcpkg::StringView", align 8
  %5 = alloca ptr, align 8
  %6 = alloca %"struct.vcpkg::StringView", align 8
  %7 = getelementptr inbounds { ptr, i64 }, ptr %4, i32 0, i32 0
  store ptr %1, ptr %7, align 8
  %8 = getelementptr inbounds { ptr, i64 }, ptr %4, i32 0, i32 1
  store i64 %2, ptr %8, align 8
  store ptr %0, ptr %5, align 8
  %9 = load ptr, ptr %5, align 8
  call void @llvm.memcpy.p0.p0.i64(ptr align 8 %6, ptr align 8 %4, i64 16, i1 false)
  %10 = getelementptr inbounds { ptr, i64 }, ptr %6, i32 0, i32 0
  %11 = load ptr, ptr %10, align 8
  %12 = getelementptr inbounds { ptr, i64 }, ptr %6, i32 0, i32 1
  %13 = load i64, ptr %12, align 8
  %14 = call noundef nonnull align 8 dereferenceable(32) ptr @_ZNR5vcpkg7Command10string_argENS_10StringViewE(ptr noundef nonnull align 8 dereferenceable(32) %9, ptr %11, i64 %13)
  ret ptr %14
}

; Function Attrs: mustprogress nounwind uwtable
define linkonce_odr dso_local void @_ZN5vcpkg13StringLiteralC2ILi5EEERAT__Kc(ptr noundef nonnull align 8 dereferenceable(16) %0, ptr noundef nonnull align 1 dereferenceable(5) %1) unnamed_addr #1 comdat align 2 {
  %3 = alloca ptr, align 8
  %4 = alloca ptr, align 8
  store ptr %0, ptr %3, align 8
  store ptr %1, ptr %4, align 8
  %5 = load ptr, ptr %3, align 8
  %6 = load ptr, ptr %4, align 8
  %7 = getelementptr inbounds [5 x i8], ptr %6, i64 0, i64 0
  call void @_ZN5vcpkg11ZStringViewC2EPKcm(ptr noundef nonnull align 8 dereferenceable(16) %5, ptr noundef %7, i64 noundef 4) #8
  ret void
}

; Function Attrs: mustprogress nounwind uwtable
define linkonce_odr dso_local void @_ZN5vcpkg7CommandD2Ev(ptr noundef nonnull align 8 dereferenceable(32) %0) unnamed_addr #1 comdat align 2 {
  %2 = alloca ptr, align 8
  store ptr %0, ptr %2, align 8
  %3 = load ptr, ptr %2, align 8
  %4 = getelementptr inbounds %"struct.vcpkg::Command", ptr %3, i32 0, i32 0
  call void @_ZNSt7__cxx1112basic_stringIcSt11char_traitsIcESaIcEED1Ev(ptr noundef nonnull align 8 dereferenceable(32) %4) #8
  ret void
}

; Function Attrs: mustprogress uwtable
define internal void @_ZNK12_GLOBAL__N_19NuGetTool8push_cmdERKN5vcpkg4PathERKNS_11NuGetSourceE(ptr dead_on_unwind noalias writable sret(%"struct.vcpkg::Command") align 8 %0, ptr noundef nonnull align 8 dereferenceable(66) %1, ptr noundef nonnull align 8 dereferenceable(32) %2, ptr noundef nonnull align 8 dereferenceable(48) %3) #0 align 2 personality ptr @__gxx_personality_v0 {
  %5 = alloca ptr, align 8
  %6 = alloca ptr, align 8
  %7 = alloca ptr, align 8
  %8 = alloca ptr, align 8
  %9 = alloca %"struct.vcpkg::Command", align 8
  %10 = alloca %"struct.vcpkg::StringLiteral", align 8
  %11 = alloca %"struct.vcpkg::StringView", align 8
  %12 = alloca ptr, align 8
  %13 = alloca i32, align 4
  %14 = alloca %"struct.vcpkg::StringView", align 8
  %15 = alloca %"struct.vcpkg::StringView", align 8
  %16 = alloca %"struct.vcpkg::StringView", align 8
  %17 = alloca %"struct.vcpkg::StringView", align 8
  store ptr %0, ptr %5, align 8
  store ptr %1, ptr %6, align 8
  store ptr %2, ptr %7, align 8
  store ptr %3, ptr %8, align 8
  %18 = load ptr, ptr %6, align 8
  call void @_ZN5vcpkg13StringLiteralC2ILi5EEERAT__Kc(ptr noundef nonnull align 8 dereferenceable(16) %10, ptr noundef nonnull align 1 dereferenceable(5) @.str.174)
  %19 = getelementptr inbounds { ptr, i64 }, ptr %10, i32 0, i32 0
  %20 = load ptr, ptr %19, align 8
  %21 = getelementptr inbounds { ptr, i64 }, ptr %10, i32 0, i32 1
  %22 = load i64, ptr %21, align 8
  call void @_ZNK12_GLOBAL__N_19NuGetTool10subcommandEN5vcpkg13StringLiteralE(ptr dead_on_unwind writable sret(%"struct.vcpkg::Command") align 8 %9, ptr noundef nonnull align 8 dereferenceable(66) %18, ptr %20, i64 %22)
  %23 = load ptr, ptr %7, align 8
  %24 = call { ptr, i64 } @_ZNK5vcpkg4PathcvNS_10StringViewEEv(ptr noundef nonnull align 8 dereferenceable(32) %23) #8
  %25 = getelementptr inbounds { ptr, i64 }, ptr %11, i32 0, i32 0
  %26 = extractvalue { ptr, i64 } %24, 0
  store ptr %26, ptr %25, align 8
  %27 = getelementptr inbounds { ptr, i64 }, ptr %11, i32 0, i32 1
  %28 = extractvalue { ptr, i64 } %24, 1
  store i64 %28, ptr %27, align 8
  %29 = getelementptr inbounds { ptr, i64 }, ptr %11, i32 0, i32 0
  %30 = load ptr, ptr %29, align 8
  %31 = getelementptr inbounds { ptr, i64 }, ptr %11, i32 0, i32 1
  %32 = load i64, ptr %31, align 8
  %33 = invoke noundef nonnull align 8 dereferenceable(32) ptr @_ZNO5vcpkg7Command10string_argENS_10StringViewE(ptr noundef nonnull align 8 dereferenceable(32) %9, ptr %30, i64 %32)
          to label %34 unwind label %64

34:                                               ; preds = %4
  call void @_ZN5vcpkg10StringViewC2EPKc(ptr noundef nonnull align 8 dereferenceable(16) %14, ptr noundef @.str.175) #8
  %35 = getelementptr inbounds { ptr, i64 }, ptr %14, i32 0, i32 0
  %36 = load ptr, ptr %35, align 8
  %37 = getelementptr inbounds { ptr, i64 }, ptr %14, i32 0, i32 1
  %38 = load i64, ptr %37, align 8
  %39 = invoke noundef nonnull align 8 dereferenceable(32) ptr @_ZNO5vcpkg7Command10string_argENS_10StringViewE(ptr noundef nonnull align 8 dereferenceable(32) %33, ptr %36, i64 %38)
          to label %40 unwind label %64

40:                                               ; preds = %34
  %41 = getelementptr inbounds %"struct.(anonymous namespace)::NuGetTool", ptr %18, i32 0, i32 1
  call void @_ZN5vcpkg10StringViewC1ERKNSt7__cxx1112basic_stringIcSt11char_traitsIcESaIcEEE(ptr noundef nonnull align 8 dereferenceable(16) %15, ptr noundef nonnull align 8 dereferenceable(32) %41) #8
  %42 = getelementptr inbounds { ptr, i64 }, ptr %15, i32 0, i32 0
  %43 = load ptr, ptr %42, align 8
  %44 = getelementptr inbounds { ptr, i64 }, ptr %15, i32 0, i32 1
  %45 = load i64, ptr %44, align 8
  %46 = invoke noundef nonnull align 8 dereferenceable(32) ptr @_ZNO5vcpkg7Command10string_argENS_10StringViewE(ptr noundef nonnull align 8 dereferenceable(32) %39, ptr %43, i64 %45)
          to label %47 unwind label %64

47:                                               ; preds = %40
  %48 = load ptr, ptr %8, align 8
  %49 = getelementptr inbounds %"struct.(anonymous namespace)::NuGetSource", ptr %48, i32 0, i32 0
  call void @llvm.memcpy.p0.p0.i64(ptr align 8 %16, ptr align 8 %49, i64 16, i1 false)
  %50 = getelementptr inbounds { ptr, i64 }, ptr %16, i32 0, i32 0
  %51 = load ptr, ptr %50, align 8
  %52 = getelementptr inbounds { ptr, i64 }, ptr %16, i32 0, i32 1
  %53 = load i64, ptr %52, align 8
  %54 = invoke noundef nonnull align 8 dereferenceable(32) ptr @_ZNO5vcpkg7Command10string_argENS_10StringViewE(ptr noundef nonnull align 8 dereferenceable(32) %46, ptr %51, i64 %53)
          to label %55 unwind label %64

55:                                               ; preds = %47
  %56 = load ptr, ptr %8, align 8
  %57 = getelementptr inbounds %"struct.(anonymous namespace)::NuGetSource", ptr %56, i32 0, i32 1
  call void @_ZN5vcpkg10StringViewC1ERKNSt7__cxx1112basic_stringIcSt11char_traitsIcESaIcEEE(ptr noundef nonnull align 8 dereferenceable(16) %17, ptr noundef nonnull align 8 dereferenceable(32) %57) #8
  %58 = getelementptr inbounds { ptr, i64 }, ptr %17, i32 0, i32 0
  %59 = load ptr, ptr %58, align 8
  %60 = getelementptr inbounds { ptr, i64 }, ptr %17, i32 0, i32 1
  %61 = load i64, ptr %60, align 8
  %62 = invoke noundef nonnull align 8 dereferenceable(32) ptr @_ZNO5vcpkg7Command10string_argENS_10StringViewE(ptr noundef nonnull align 8 dereferenceable(32) %54, ptr %59, i64 %61)
          to label %63 unwind label %64

63:                                               ; preds = %55
  call void @_ZN5vcpkg7CommandC2EOS0_(ptr noundef nonnull align 8 dereferenceable(32) %0, ptr noundef nonnull align 8 dereferenceable(32) %62) #8
  call void @_ZN5vcpkg7CommandD2Ev(ptr noundef nonnull align 8 dereferenceable(32) %9) #8
  ret void

64:                                               ; preds = %55, %47, %40, %34, %4
  %65 = landingpad { ptr, i32 }
          cleanup
  %66 = extractvalue { ptr, i32 } %65, 0
  store ptr %66, ptr %12, align 8
  %67 = extractvalue { ptr, i32 } %65, 1
  store i32 %67, ptr %13, align 4
  call void @_ZN5vcpkg7CommandD2Ev(ptr noundef nonnull align 8 dereferenceable(32) %9) #8
  br label %68

68:                                               ; preds = %64
  %69 = load ptr, ptr %12, align 8
  %70 = load i32, ptr %13, align 4
  %71 = insertvalue { ptr, i32 } poison, ptr %69, 0
  %72 = insertvalue { ptr, i32 } %71, i32 %70, 1
  resume { ptr, i32 } %72
}

; Function Attrs: mustprogress uwtable
define internal void @_ZNK12_GLOBAL__N_19NuGetTool4pushERN5vcpkg11MessageSinkERKNS1_4PathERKNS_11NuGetSourceE(ptr dead_on_unwind noalias writable sret(%"struct.vcpkg::ExpectedT.154") align 8 %0, ptr noundef nonnull align 8 dereferenceable(66) %1, ptr noundef nonnull align 8 dereferenceable(8) %2, ptr noundef nonnull align 8 dereferenceable(32) %3, ptr noundef nonnull align 8 dereferenceable(48) %4) #0 align 2 personality ptr @__gxx_personality_v0 {
  %6 = alloca ptr, align 8
  %7 = alloca ptr, align 8
  %8 = alloca ptr, align 8
  %9 = alloca ptr, align 8
  %10 = alloca ptr, align 8
  %11 = alloca %"struct.vcpkg::Command", align 8
  %12 = alloca ptr, align 8
  %13 = alloca i32, align 4
  store ptr %0, ptr %6, align 8
  store ptr %1, ptr %7, align 8
  store ptr %2, ptr %8, align 8
  store ptr %3, ptr %9, align 8
  store ptr %4, ptr %10, align 8
  %14 = load ptr, ptr %7, align 8
  %15 = load ptr, ptr %9, align 8
  %16 = load ptr, ptr %10, align 8
  call void @_ZNK12_GLOBAL__N_19NuGetTool8push_cmdERKN5vcpkg4PathERKNS_11NuGetSourceE(ptr dead_on_unwind writable sret(%"struct.vcpkg::Command") align 8 %11, ptr noundef nonnull align 8 dereferenceable(66) %14, ptr noundef nonnull align 8 dereferenceable(32) %15, ptr noundef nonnull align 8 dereferenceable(48) %16)
  %17 = load ptr, ptr %8, align 8
  invoke void @_ZNK12_GLOBAL__N_19NuGetTool21run_nuget_commandlineERKN5vcpkg7CommandERNS1_11MessageSinkE(ptr dead_on_unwind writable sret(%"struct.vcpkg::ExpectedT.154") align 8 %0, ptr noundef nonnull align 8 dereferenceable(66) %14, ptr noundef nonnull align 8 dereferenceable(32) %11, ptr noundef nonnull align 8 dereferenceable(8) %17)
          to label %18 unwind label %19

18:                                               ; preds = %5
  call void @_ZN5vcpkg7CommandD2Ev(ptr noundef nonnull align 8 dereferenceable(32) %11) #8
  ret void

19:                                               ; preds = %5
  %20 = landingpad { ptr, i32 }
          cleanup
  %21 = extractvalue { ptr, i32 } %20, 0
  store ptr %21, ptr %12, align 8
  %22 = extractvalue { ptr, i32 } %20, 1
  store i32 %22, ptr %13, align 4
  call void @_ZN5vcpkg7CommandD2Ev(ptr noundef nonnull align 8 dereferenceable(32) %11) #8
  br label %23

23:                                               ; preds = %19
  %24 = load ptr, ptr %12, align 8
  %25 = load i32, ptr %13, align 4
  %26 = insertvalue { ptr, i32 } poison, ptr %24, 0
  %27 = insertvalue { ptr, i32 } %26, i32 %25, 1
  resume { ptr, i32 } %27
}