; Function Attrs: mustprogress uwtable
define internal fastcc void @_ZNK12_GLOBAL__N_19NuGetTool4pushERN5vcpkg11MessageSinkERKNS1_4PathERKNS_11NuGetSourceE(ptr dead_on_unwind noalias writable align 8 %0, ptr noundef nonnull align 8 dereferenceable(66) %1, ptr noundef nonnull align 8 dereferenceable(8) %2, ptr noundef nonnull align 8 dereferenceable(32) %3, ptr noundef nonnull align 8 dereferenceable(48) %4) unnamed_addr #0 align 2 personality ptr @__gxx_personality_v0 {
  %6 = alloca %"struct.vcpkg::Command", align 8
  %7 = alloca %"struct.vcpkg::StringView", align 8
  %8 = alloca %"struct.vcpkg::StringView", align 8
  %9 = alloca %"struct.vcpkg::Command", align 8
  call void @llvm.lifetime.start.p0(i64 32, ptr nonnull %6)
  call void @llvm.lifetime.start.p0(i64 16, ptr nonnull %7)
  call void @llvm.lifetime.start.p0(i64 16, ptr nonnull %8)
  call fastcc void @_ZNK12_GLOBAL__N_19NuGetTool10subcommandEN5vcpkg13StringLiteralE(ptr dead_on_unwind noalias nonnull writable align 8 %6, ptr noundef nonnull align 8 dereferenceable(66) %1, ptr nonnull @.str.174, i64 4), !noalias !740
  %10 = call { ptr, i64 } @_ZNK5vcpkg4PathcvNS_10StringViewEEv(ptr noundef nonnull align 8 dereferenceable(32) %3) #24, !noalias !740
  %11 = extractvalue { ptr, i64 } %10, 0
  %12 = extractvalue { ptr, i64 } %10, 1
  %13 = invoke noundef nonnull align 8 dereferenceable(32) ptr @_ZNR5vcpkg7Command10string_argENS_10StringViewE(ptr noundef nonnull align 8 dereferenceable(32) %6, ptr %11, i64 %12)
          to label %_ZNO5vcpkg7Command10string_argENS_10StringViewE.exit.i unwind label %26

_ZNO5vcpkg7Command10string_argENS_10StringViewE.exit.i: ; preds = %5
  %14 = invoke noundef nonnull align 8 dereferenceable(32) ptr @_ZNR5vcpkg7Command10string_argENS_10StringViewE(ptr noundef nonnull align 8 dereferenceable(32) %13, ptr nonnull @.str.175, i64 8)
          to label %_ZNO5vcpkg7Command10string_argENS_10StringViewE.exit7.i unwind label %26, !noalias !740

_ZNO5vcpkg7Command10string_argENS_10StringViewE.exit7.i: ; preds = %_ZNO5vcpkg7Command10string_argENS_10StringViewE.exit.i
  %15 = getelementptr inbounds i8, ptr %1, i64 32
  call void @_ZN5vcpkg10StringViewC1ERKNSt7__cxx1112basic_stringIcSt11char_traitsIcESaIcEEE(ptr noundef nonnull align 8 dereferenceable(16) %7, ptr noundef nonnull align 8 dereferenceable(32) %15) #24, !noalias !740
  %16 = load ptr, ptr %7, align 8, !noalias !740
  %17 = getelementptr inbounds i8, ptr %7, i64 8
  %18 = load i64, ptr %17, align 8, !noalias !740
  %19 = invoke noundef nonnull align 8 dereferenceable(32) ptr @_ZNR5vcpkg7Command10string_argENS_10StringViewE(ptr noundef nonnull align 8 dereferenceable(32) %14, ptr %16, i64 %18)
          to label %_ZNO5vcpkg7Command10string_argENS_10StringViewE.exit8.i unwind label %26, !noalias !740

_ZNO5vcpkg7Command10string_argENS_10StringViewE.exit8.i: ; preds = %_ZNO5vcpkg7Command10string_argENS_10StringViewE.exit7.i
  %.sroa.0.0.copyload.i = load ptr, ptr %4, align 8, !noalias !740
  %.sroa.2.0..sroa_idx.i = getelementptr inbounds i8, ptr %4, i64 8
  %.sroa.2.0.copyload.i = load i64, ptr %.sroa.2.0..sroa_idx.i, align 8, !noalias !740
  %20 = invoke noundef nonnull align 8 dereferenceable(32) ptr @_ZNR5vcpkg7Command10string_argENS_10StringViewE(ptr noundef nonnull align 8 dereferenceable(32) %19, ptr %.sroa.0.0.copyload.i, i64 %.sroa.2.0.copyload.i)
          to label %_ZNO5vcpkg7Command10string_argENS_10StringViewE.exit9.i unwind label %26, !noalias !740

_ZNO5vcpkg7Command10string_argENS_10StringViewE.exit9.i: ; preds = %_ZNO5vcpkg7Command10string_argENS_10StringViewE.exit8.i
  %21 = getelementptr inbounds i8, ptr %4, i64 16
  call void @_ZN5vcpkg10StringViewC1ERKNSt7__cxx1112basic_stringIcSt11char_traitsIcESaIcEEE(ptr noundef nonnull align 8 dereferenceable(16) %8, ptr noundef nonnull align 8 dereferenceable(32) %21) #24, !noalias !740
  %22 = load ptr, ptr %8, align 8, !noalias !740
  %23 = getelementptr inbounds i8, ptr %8, i64 8
  %24 = load i64, ptr %23, align 8, !noalias !740
  %25 = invoke noundef nonnull align 8 dereferenceable(32) ptr @_ZNR5vcpkg7Command10string_argENS_10StringViewE(ptr noundef nonnull align 8 dereferenceable(32) %20, ptr %22, i64 %24)
          to label %_ZNK12_GLOBAL__N_19NuGetTool8push_cmdERKN5vcpkg4PathERKNS_11NuGetSourceE.exit unwind label %26, !noalias !740

common.resume:                                    ; preds = %30, %26
  %.sink = phi ptr [ %9, %30 ], [ %6, %26 ]
  %common.resume.op = phi { ptr, i32 } [ %31, %30 ], [ %27, %26 ]
  call void @_ZNSt7__cxx1112basic_stringIcSt11char_traitsIcESaIcEED1Ev(ptr noundef nonnull align 8 dereferenceable(32) %.sink) #24
  resume { ptr, i32 } %common.resume.op

26:                                               ; preds = %_ZNO5vcpkg7Command10string_argENS_10StringViewE.exit9.i, %_ZNO5vcpkg7Command10string_argENS_10StringViewE.exit8.i, %_ZNO5vcpkg7Command10string_argENS_10StringViewE.exit7.i, %_ZNO5vcpkg7Command10string_argENS_10StringViewE.exit.i, %5
  %27 = landingpad { ptr, i32 }
          cleanup
  br label %common.resume

_ZNK12_GLOBAL__N_19NuGetTool8push_cmdERKN5vcpkg4PathERKNS_11NuGetSourceE.exit: ; preds = %_ZNO5vcpkg7Command10string_argENS_10StringViewE.exit9.i
  call void @_ZNSt7__cxx1112basic_stringIcSt11char_traitsIcESaIcEEC1EOS4_(ptr noundef nonnull align 8 dereferenceable(32) %9, ptr noundef nonnull align 8 dereferenceable(32) %25) #24
  call void @_ZNSt7__cxx1112basic_stringIcSt11char_traitsIcESaIcEED1Ev(ptr noundef nonnull align 8 dereferenceable(32) %6) #24
  call void @llvm.lifetime.end.p0(i64 32, ptr nonnull %6)
  call void @llvm.lifetime.end.p0(i64 16, ptr nonnull %7)
  call void @llvm.lifetime.end.p0(i64 16, ptr nonnull %8)
  %28 = getelementptr inbounds i8, ptr %1, i64 64
  %.val = load i8, ptr %28, align 8
  invoke fastcc void @_ZNK12_GLOBAL__N_19NuGetTool21run_nuget_commandlineERKN5vcpkg7CommandERNS1_11MessageSinkE(ptr dead_on_unwind noalias writable align 8 %0, i8 %.val, ptr noundef nonnull align 8 dereferenceable(32) %9, ptr noundef nonnull align 8 dereferenceable(8) %2)
          to label %29 unwind label %30

29:                                               ; preds = %_ZNK12_GLOBAL__N_19NuGetTool8push_cmdERKN5vcpkg4PathERKNS_11NuGetSourceE.exit
  call void @_ZNSt7__cxx1112basic_stringIcSt11char_traitsIcESaIcEED1Ev(ptr noundef nonnull align 8 dereferenceable(32) %9) #24
  ret void

30:                                               ; preds = %_ZNK12_GLOBAL__N_19NuGetTool8push_cmdERKN5vcpkg4PathERKNS_11NuGetSourceE.exit
  %31 = landingpad { ptr, i32 }
          cleanup
  br label %common.resume
}